target datalayout = "e-m:e-p270:32:32-p271:32:32-p272:64:64-i64:64-i128:128-f80:128-n8:16:32:64-S128"
target triple = "x86_64-unknown-linux-gnu"

@.str.10 = private unnamed_addr constant [29 x i8] c"../qemu/system/device_tree.c\00", align 1
@__func__.qemu_fdt_getprop_cell = private unnamed_addr constant [22 x i8] c"qemu_fdt_getprop_cell\00", align 1
@.str.17 = private unnamed_addr constant [41 x i8] c"%s: %s/%s not 4 bytes long (not a cell?)\00", align 1

; Function Attrs: nounwind sspstrong uwtable
define internal i32 @be32_to_cpu(i32 noundef %v) #0 {
entry:
  %v.addr = alloca i32, align 4
  store i32 %v, ptr %v.addr, align 4
  %0 = load i32, ptr %v.addr, align 4
  %1 = call i32 @llvm.bswap.i32(i32 %0)
  ret i32 %1
}

; Function Attrs: nounwind sspstrong uwtable
define dso_local i32 @qemu_fdt_getprop_cell(ptr noundef %fdt, ptr noundef %node_path, ptr noundef %property, ptr noundef %lenp, ptr noundef %errp) #0 {
entry:
  %retval = alloca i32, align 4
  %fdt.addr = alloca ptr, align 8
  %node_path.addr = alloca ptr, align 8
  %property.addr = alloca ptr, align 8
  %lenp.addr = alloca ptr, align 8
  %errp.addr = alloca ptr, align 8
  %len = alloca i32, align 4
  %p = alloca ptr, align 8
  store ptr %fdt, ptr %fdt.addr, align 8
  store ptr %node_path, ptr %node_path.addr, align 8
  store ptr %property, ptr %property.addr, align 8
  store ptr %lenp, ptr %lenp.addr, align 8
  store ptr %errp, ptr %errp.addr, align 8
  %0 = load ptr, ptr %lenp.addr, align 8
  %tobool = icmp ne ptr %0, null
  br i1 %tobool, label %if.end, label %if.then

if.then:                                          ; preds = %entry
  store ptr %len, ptr %lenp.addr, align 8
  br label %if.end

if.end:                                           ; preds = %if.then, %entry
  %1 = load ptr, ptr %fdt.addr, align 8
  %2 = load ptr, ptr %node_path.addr, align 8
  %3 = load ptr, ptr %property.addr, align 8
  %4 = load ptr, ptr %lenp.addr, align 8
  %5 = load ptr, ptr %errp.addr, align 8
  %call = call ptr @qemu_fdt_getprop(ptr noundef %1, ptr noundef %2, ptr noundef %3, ptr noundef %4, ptr noundef %5)
  store ptr %call, ptr %p, align 8
  %6 = load ptr, ptr %p, align 8
  %tobool1 = icmp ne ptr %6, null
  br i1 %tobool1, label %if.else, label %if.then2

if.then2:                                         ; preds = %if.end
  store i32 0, ptr %retval, align 4
  br label %return

if.else:                                          ; preds = %if.end
  %7 = load ptr, ptr %lenp.addr, align 8
  %8 = load i32, ptr %7, align 4
  %cmp = icmp ne i32 %8, 4
  br i1 %cmp, label %if.then3, label %if.end4

if.then3:                                         ; preds = %if.else
  %9 = load ptr, ptr %errp.addr, align 8
  %10 = load ptr, ptr %node_path.addr, align 8
  %11 = load ptr, ptr %property.addr, align 8
  call void (ptr, ptr, i32, ptr, ptr, ...) @error_setg_internal(ptr noundef %9, ptr noundef @.str.10, i32 noundef 462, ptr noundef @__func__.qemu_fdt_getprop_cell, ptr noundef @.str.17, ptr noundef @__func__.qemu_fdt_getprop_cell, ptr noundef %10, ptr noundef %11)
  %12 = load ptr, ptr %lenp.addr, align 8
  store i32 -22, ptr %12, align 4
  store i32 0, ptr %retval, align 4
  br label %return

if.end4:                                          ; preds = %if.else
  br label %if.end5

if.end5:                                          ; preds = %if.end4
  %13 = load ptr, ptr %p, align 8
  %14 = load i32, ptr %13, align 4
  %call6 = call i32 @be32_to_cpu(i32 noundef %14)
  store i32 %call6, ptr %retval, align 4
  br label %return

return:                                           ; preds = %if.end5, %if.then3, %if.then2
  %15 = load i32, ptr %retval, align 4
  ret i32 %15
}