; Function Attrs: nounwind sspstrong uwtable
define dso_local noundef i32 @qemu_fdt_getprop_cell(ptr noundef %fdt, ptr noundef %node_path, ptr noundef %property, ptr noundef %lenp, ptr noundef %errp) local_unnamed_addr #0 {
entry:
  %len = alloca i32, align 4
  %tobool.not = icmp eq ptr %lenp, null
  %spec.select = select i1 %tobool.not, ptr %len, ptr %lenp
  %call = call ptr @qemu_fdt_getprop(ptr noundef %fdt, ptr noundef %node_path, ptr noundef %property, ptr noundef nonnull %spec.select, ptr noundef %errp)
  %tobool1.not = icmp eq ptr %call, null
  br i1 %tobool1.not, label %return, label %if.else

if.else:                                          ; preds = %entry
  %0 = load i32, ptr %spec.select, align 4
  %cmp.not = icmp eq i32 %0, 4
  br i1 %cmp.not, label %if.end5, label %if.then3

if.then3:                                         ; preds = %if.else
  call void (ptr, ptr, i32, ptr, ptr, ...) @error_setg_internal(ptr noundef %errp, ptr noundef nonnull @.str.10, i32 noundef 462, ptr noundef nonnull @__func__.qemu_fdt_getprop_cell, ptr noundef nonnull @.str.17, ptr noundef nonnull @__func__.qemu_fdt_getprop_cell, ptr noundef %node_path, ptr noundef %property) #12
  store i32 -22, ptr %spec.select, align 4
  br label %return

if.end5:                                          ; preds = %if.else
  %1 = load i32, ptr %call, align 4
  %2 = call noundef i32 @llvm.bswap.i32(i32 %1)
  br label %return

return:                                           ; preds = %entry, %if.end5, %if.then3
  %retval.0 = phi i32 [ 0, %if.then3 ], [ %2, %if.end5 ], [ 0, %entry ]
  ret i32 %retval.0
}